target datalayout = "e-m:e-p270:32:32-p271:32:32-p272:64:64-i64:64-i128:128-f80:128-n8:16:32:64-S128"
target triple = "x86_64-pc-linux-gnu"

%struct.DdNode = type { i32, i32, ptr, %union.anon, i64 }
%union.anon = type { %struct.DdChildren }
%struct.DdChildren = type { ptr, ptr }

; Function Attrs: nounwind uwtable
define ptr @cuddAddNegateRecur(ptr noundef %0, ptr noundef %1) #0 {
  %3 = alloca ptr, align 8
  %4 = alloca ptr, align 8
  %5 = alloca ptr, align 8
  %6 = alloca ptr, align 8
  %7 = alloca ptr, align 8
  %8 = alloca ptr, align 8
  %9 = alloca ptr, align 8
  %10 = alloca ptr, align 8
  %11 = alloca i32, align 4
  store ptr %0, ptr %4, align 8, !tbaa !3
  store ptr %1, ptr %5, align 8, !tbaa !8
  call void @llvm.lifetime.start.p0(i64 8, ptr %6) #5
  call void @llvm.lifetime.start.p0(i64 8, ptr %7) #5
  call void @llvm.lifetime.start.p0(i64 8, ptr %8) #5
  call void @llvm.lifetime.start.p0(i64 8, ptr %9) #5
  call void @llvm.lifetime.start.p0(i64 8, ptr %10) #5
  %12 = load ptr, ptr %5, align 8, !tbaa !8
  %13 = getelementptr inbounds nuw %struct.DdNode, ptr %12, i32 0, i32 0
  %14 = load i32, ptr %13, align 8, !tbaa !29
  %15 = icmp eq i32 %14, 2147483647
  br i1 %15, label %16, label %24

16:                                               ; preds = %2
  %17 = load ptr, ptr %4, align 8, !tbaa !3
  %18 = load ptr, ptr %5, align 8, !tbaa !8
  %19 = getelementptr inbounds nuw %struct.DdNode, ptr %18, i32 0, i32 3
  %20 = load double, ptr %19, align 8, !tbaa !30
  %21 = fneg double %20
  %22 = call ptr @cuddUniqueConst(ptr noundef %17, double noundef %21)
  store ptr %22, ptr %6, align 8, !tbaa !8
  %23 = load ptr, ptr %6, align 8, !tbaa !8
  store ptr %23, ptr %3, align 8
  store i32 1, ptr %11, align 4
  br label %112

24:                                               ; preds = %2
  %25 = load ptr, ptr %4, align 8, !tbaa !3
  %26 = load ptr, ptr %5, align 8, !tbaa !8
  %27 = call ptr @cuddCacheLookup1(ptr noundef %25, ptr noundef @Cudd_addNegate, ptr noundef %26)
  store ptr %27, ptr %6, align 8, !tbaa !8
  %28 = load ptr, ptr %6, align 8, !tbaa !8
  %29 = icmp ne ptr %28, null
  br i1 %29, label %30, label %32

30:                                               ; preds = %24
  %31 = load ptr, ptr %6, align 8, !tbaa !8
  store ptr %31, ptr %3, align 8
  store i32 1, ptr %11, align 4
  br label %112

32:                                               ; preds = %24
  %33 = load ptr, ptr %5, align 8, !tbaa !8
  %34 = getelementptr inbounds nuw %struct.DdNode, ptr %33, i32 0, i32 3
  %35 = getelementptr inbounds nuw %struct.DdChildren, ptr %34, i32 0, i32 0
  %36 = load ptr, ptr %35, align 8, !tbaa !30
  store ptr %36, ptr %7, align 8, !tbaa !8
  %37 = load ptr, ptr %5, align 8, !tbaa !8
  %38 = getelementptr inbounds nuw %struct.DdNode, ptr %37, i32 0, i32 3
  %39 = getelementptr inbounds nuw %struct.DdChildren, ptr %38, i32 0, i32 1
  %40 = load ptr, ptr %39, align 8, !tbaa !30
  store ptr %40, ptr %8, align 8, !tbaa !8
  %41 = load ptr, ptr %4, align 8, !tbaa !3
  %42 = load ptr, ptr %7, align 8, !tbaa !8
  %43 = call ptr @cuddAddNegateRecur(ptr noundef %41, ptr noundef %42)
  store ptr %43, ptr %9, align 8, !tbaa !8
  %44 = load ptr, ptr %9, align 8, !tbaa !8
  %45 = icmp eq ptr %44, null
  br i1 %45, label %46, label %47

46:                                               ; preds = %32
  store ptr null, ptr %3, align 8
  store i32 1, ptr %11, align 4
  br label %112

47:                                               ; preds = %32
  %48 = load ptr, ptr %9, align 8, !tbaa !8
  %49 = ptrtoint ptr %48 to i64
  %50 = and i64 %49, -2
  %51 = inttoptr i64 %50 to ptr
  %52 = getelementptr inbounds nuw %struct.DdNode, ptr %51, i32 0, i32 1
  %53 = load i32, ptr %52, align 4, !tbaa !31
  %54 = add i32 %53, 1
  store i32 %54, ptr %52, align 4, !tbaa !31
  %55 = load ptr, ptr %4, align 8, !tbaa !3
  %56 = load ptr, ptr %8, align 8, !tbaa !8
  %57 = call ptr @cuddAddNegateRecur(ptr noundef %55, ptr noundef %56)
  store ptr %57, ptr %10, align 8, !tbaa !8
  %58 = load ptr, ptr %10, align 8, !tbaa !8
  %59 = icmp eq ptr %58, null
  br i1 %59, label %60, label %63

60:                                               ; preds = %47
  %61 = load ptr, ptr %4, align 8, !tbaa !3
  %62 = load ptr, ptr %9, align 8, !tbaa !8
  call void @Cudd_RecursiveDeref(ptr noundef %61, ptr noundef %62)
  store ptr null, ptr %3, align 8
  store i32 1, ptr %11, align 4
  br label %112

63:                                               ; preds = %47
  %64 = load ptr, ptr %10, align 8, !tbaa !8
  %65 = ptrtoint ptr %64 to i64
  %66 = and i64 %65, -2
  %67 = inttoptr i64 %66 to ptr
  %68 = getelementptr inbounds nuw %struct.DdNode, ptr %67, i32 0, i32 1
  %69 = load i32, ptr %68, align 4, !tbaa !31
  %70 = add i32 %69, 1
  store i32 %70, ptr %68, align 4, !tbaa !31
  %71 = load ptr, ptr %9, align 8, !tbaa !8
  %72 = load ptr, ptr %10, align 8, !tbaa !8
  %73 = icmp eq ptr %71, %72
  br i1 %73, label %74, label %76

74:                                               ; preds = %63
  %75 = load ptr, ptr %9, align 8, !tbaa !8
  br label %84

76:                                               ; preds = %63
  %77 = load ptr, ptr %4, align 8, !tbaa !3
  %78 = load ptr, ptr %5, align 8, !tbaa !8
  %79 = getelementptr inbounds nuw %struct.DdNode, ptr %78, i32 0, i32 0
  %80 = load i32, ptr %79, align 8, !tbaa !29
  %81 = load ptr, ptr %9, align 8, !tbaa !8
  %82 = load ptr, ptr %10, align 8, !tbaa !8
  %83 = call ptr @cuddUniqueInter(ptr noundef %77, i32 noundef %80, ptr noundef %81, ptr noundef %82)
  br label %84

84:                                               ; preds = %76, %74
  %85 = phi ptr [ %75, %74 ], [ %83, %76 ]
  store ptr %85, ptr %6, align 8, !tbaa !8
  %86 = load ptr, ptr %6, align 8, !tbaa !8
  %87 = icmp eq ptr %86, null
  br i1 %87, label %88, label %93

88:                                               ; preds = %84
  %89 = load ptr, ptr %4, align 8, !tbaa !3
  %90 = load ptr, ptr %9, align 8, !tbaa !8
  call void @Cudd_RecursiveDeref(ptr noundef %89, ptr noundef %90)
  %91 = load ptr, ptr %4, align 8, !tbaa !3
  %92 = load ptr, ptr %10, align 8, !tbaa !8
  call void @Cudd_RecursiveDeref(ptr noundef %91, ptr noundef %92)
  store ptr null, ptr %3, align 8
  store i32 1, ptr %11, align 4
  br label %112

93:                                               ; preds = %84
  %94 = load ptr, ptr %9, align 8, !tbaa !8
  %95 = ptrtoint ptr %94 to i64
  %96 = and i64 %95, -2
  %97 = inttoptr i64 %96 to ptr
  %98 = getelementptr inbounds nuw %struct.DdNode, ptr %97, i32 0, i32 1
  %99 = load i32, ptr %98, align 4, !tbaa !31
  %100 = add i32 %99, -1
  store i32 %100, ptr %98, align 4, !tbaa !31
  %101 = load ptr, ptr %10, align 8, !tbaa !8
  %102 = ptrtoint ptr %101 to i64
  %103 = and i64 %102, -2
  %104 = inttoptr i64 %103 to ptr
  %105 = getelementptr inbounds nuw %struct.DdNode, ptr %104, i32 0, i32 1
  %106 = load i32, ptr %105, align 4, !tbaa !31
  %107 = add i32 %106, -1
  store i32 %107, ptr %105, align 4, !tbaa !31
  %108 = load ptr, ptr %4, align 8, !tbaa !3
  %109 = load ptr, ptr %5, align 8, !tbaa !8
  %110 = load ptr, ptr %6, align 8, !tbaa !8
  call void @cuddCacheInsert1(ptr noundef %108, ptr noundef @Cudd_addNegate, ptr noundef %109, ptr noundef %110)
  %111 = load ptr, ptr %6, align 8, !tbaa !8
  store ptr %111, ptr %3, align 8
  store i32 1, ptr %11, align 4
  br label %112

112:                                              ; preds = %93, %88, %60, %46, %30, %16
  call void @llvm.lifetime.end.p0(i64 8, ptr %10) #5
  call void @llvm.lifetime.end.p0(i64 8, ptr %9) #5
  call void @llvm.lifetime.end.p0(i64 8, ptr %8) #5
  call void @llvm.lifetime.end.p0(i64 8, ptr %7) #5
  call void @llvm.lifetime.end.p0(i64 8, ptr %6) #5
  %113 = load ptr, ptr %3, align 8
  ret ptr %113
}