; Function Attrs: nounwind uwtable
define ptr @cuddAddNegateRecur(ptr noundef %0, ptr noundef %1) local_unnamed_addr #0 {
  %3 = load i32, ptr %1, align 8, !tbaa !26
  %4 = icmp eq i32 %3, 2147483647
  br i1 %4, label %5, label %10

5:                                                ; preds = %2
  %6 = getelementptr inbounds nuw i8, ptr %1, i64 16
  %7 = load double, ptr %6, align 8, !tbaa !27
  %8 = fneg double %7
  %9 = tail call ptr @cuddUniqueConst(ptr noundef %0, double noundef %8) #4
  br label %47

10:                                               ; preds = %2
  %11 = tail call ptr @cuddCacheLookup1(ptr noundef %0, ptr noundef nonnull @Cudd_addNegate, ptr noundef nonnull %1) #4
  %.not = icmp eq ptr %11, null
  br i1 %.not, label %12, label %47

12:                                               ; preds = %10
  %13 = getelementptr inbounds nuw i8, ptr %1, i64 16
  %14 = load ptr, ptr %13, align 8, !tbaa !27
  %15 = getelementptr inbounds nuw i8, ptr %1, i64 24
  %16 = load ptr, ptr %15, align 8, !tbaa !27
  %17 = tail call ptr @cuddAddNegateRecur(ptr noundef %0, ptr noundef %14)
  %18 = icmp eq ptr %17, null
  br i1 %18, label %47, label %19

19:                                               ; preds = %12
  %20 = ptrtoint ptr %17 to i64
  %21 = and i64 %20, -2
  %22 = inttoptr i64 %21 to ptr
  %23 = getelementptr inbounds nuw i8, ptr %22, i64 4
  %24 = load i32, ptr %23, align 4, !tbaa !28
  %25 = add i32 %24, 1
  store i32 %25, ptr %23, align 4, !tbaa !28
  %26 = tail call ptr @cuddAddNegateRecur(ptr noundef %0, ptr noundef %16)
  %27 = icmp eq ptr %26, null
  br i1 %27, label %28, label %29

28:                                               ; preds = %19
  tail call void @Cudd_RecursiveDeref(ptr noundef %0, ptr noundef nonnull %17) #4
  br label %47

29:                                               ; preds = %19
  %30 = ptrtoint ptr %26 to i64
  %31 = and i64 %30, -2
  %32 = inttoptr i64 %31 to ptr
  %33 = getelementptr inbounds nuw i8, ptr %32, i64 4
  %34 = load i32, ptr %33, align 4, !tbaa !28
  %35 = add i32 %34, 1
  store i32 %35, ptr %33, align 4, !tbaa !28
  %36 = icmp eq ptr %17, %26
  br i1 %36, label %.thread, label %37

37:                                               ; preds = %29
  %38 = load i32, ptr %1, align 8, !tbaa !26
  %39 = tail call ptr @cuddUniqueInter(ptr noundef %0, i32 noundef %38, ptr noundef nonnull %17, ptr noundef nonnull %26) #4
  %40 = icmp eq ptr %39, null
  br i1 %40, label %41, label %.thread

41:                                               ; preds = %37
  tail call void @Cudd_RecursiveDeref(ptr noundef %0, ptr noundef nonnull %17) #4
  tail call void @Cudd_RecursiveDeref(ptr noundef %0, ptr noundef nonnull %26) #4
  br label %47

.thread:                                          ; preds = %29, %37
  %42 = phi ptr [ %39, %37 ], [ %17, %29 ]
  %43 = load i32, ptr %23, align 4, !tbaa !28
  %44 = add i32 %43, -1
  store i32 %44, ptr %23, align 4, !tbaa !28
  %45 = load i32, ptr %33, align 4, !tbaa !28
  %46 = add i32 %45, -1
  store i32 %46, ptr %33, align 4, !tbaa !28
  tail call void @cuddCacheInsert1(ptr noundef %0, ptr noundef nonnull @Cudd_addNegate, ptr noundef nonnull %1, ptr noundef nonnull %42) #4
  br label %47

47:                                               ; preds = %12, %10, %.thread, %41, %28, %5
  %.0 = phi ptr [ %9, %5 ], [ null, %28 ], [ null, %41 ], [ %42, %.thread ], [ %11, %10 ], [ null, %12 ]
  ret ptr %.0
}